
There are no discarded input sections

Memory Configuration

Name             Origin             Length             Attributes
_sysmem          0x0000000080000000 0x0000000008000000 axw!rl
*default*        0x0000000000000000 0xffffffffffffffff

Linker script and memory map


.text           0x0000000080000000     0x1a40
                0x0000000080000000                PROVIDE (_mmap_text_start = ABSOLUTE (.))
 *(.text.entry)
 .text.entry    0x0000000080000000      0x16c .build/bootstrap_asm.o
                0x0000000080000074                __noop
 *(.text .text.*)
 .text          0x000000008000016c       0xa0 .build/initialize.o
                0x000000008000016c                initialize
 .text          0x000000008000020c       0xde .build/traps.o
                0x000000008000020c                __sys_capture_syscall
                0x000000008000021a                raise_syscall
                0x0000000080000266                handle_exception
 .text          0x00000000800002ea       0x10 .build/resched.o
                0x00000000800002ea                resched
 .text          0x00000000800002fa        0x0 .build/mmap.o
 .text          0x00000000800002fa      0x2b0 .build/uart.o
                0x00000000800002fa                __sys_putc
                0x0000000080000340                __sys_getc
                0x00000000800003a2                uart_putc
                0x00000000800003ce                uart_getc
                0x00000000800003ee                set_uart_interrupt
                0x0000000080000460                uart_handler
                0x00000000800004b2                uart_init
 .text          0x00000000800005aa       0xa0 .build/plic.o
                0x00000000800005aa                plic_init
                0x00000000800005d6                handle_plic
 .text          0x000000008000064a       0xca .build/timer.o
                0x000000008000064a                clk_init
                0x0000000080000676                handle_clk
 .text          0x0000000080000714      0x698 .build/msutil.o
                0x0000000080000714                _prep_stdin
                0x0000000080000776                syscall_tester
                0x00000000800007c4                getc_tester
                0x0000000080000830                putc_tester
                0x00000000800008e4                _psudoprint
                0x0000000080000926                __clear_string
                0x00000000800009b8                __test_template
                0x0000000080000ad2                __test_string
                0x0000000080000b7a                _copy_string
                0x0000000080000bbe                _copy_hex
                0x0000000080000cba                _copy_dec
 .text          0x0000000080000dac      0x720 .build/ms1.o
                0x0000000080000dac                __ms1
 .text          0x00000000800014cc       0x9a .build/barelib.o
                0x00000000800014cc                memset
                0x0000000080001518                memcpy
 .text          0x0000000080001566      0x2cc .build/printf.o
                0x0000000080001566                int_print
                0x000000008000161e                hex_print
                0x000000008000172c                printf
 .text          0x0000000080001832       0x20 .build/interrupts_asm.o
                0x0000000080001832                set_interrupt
                0x0000000080001838                disable_interrupts
                0x000000008000183e                enable_interrupts
                0x0000000080001844                restore_interrupts
                0x000000008000184a                is_interrupting
 .text          0x0000000080001852      0x1ec .build/msutil_asm.o
                0x0000000080001952                _ms_recovery_status
                0x0000000080001956                _ms_recover
                0x0000000080001960                _ms_safe_call
 .text          0x0000000080001a3e        0x0 .build/bootstrap_asm.o
                0x0000000080001a40                . = ALIGN (0x4)
 *fill*         0x0000000080001a3e        0x2 
                0x0000000080001a40                PROVIDE (_mmap_text_end = ABSOLUTE (.))

.rodata         0x0000000080002000      0x7db
                0x0000000080002000                PROVIDE (_mmap_data_start = ABSOLUTE (.))
 *(.srodata .srodata.*)
 .srodata       0x0000000080002000        0x4 .build/timer.o
                0x0000000080002000                timer_interval
 *(.rodata .rodata.*)
 *fill*         0x0000000080002004        0x4 
 .rodata        0x0000000080002008       0x83 .build/initialize.o
 *fill*         0x000000008000208b        0x5 
 .rodata        0x0000000080002090      0x74b .build/ms1.o

.eh_frame       0x00000000800027e0      0x5fc
 .eh_frame      0x00000000800027e0       0x40 .build/initialize.o
 .eh_frame      0x0000000080002820       0xb8 .build/traps.o
                                         0xc8 (size before relaxing)
 .eh_frame      0x00000000800028d8       0x28 .build/resched.o
                                         0x38 (size before relaxing)
 .eh_frame      0x0000000080002900      0x110 .build/uart.o
                                        0x120 (size before relaxing)
 .eh_frame      0x0000000080002a10       0x90 .build/plic.o
                                         0xa8 (size before relaxing)
 .eh_frame      0x0000000080002aa0       0x90 .build/timer.o
                                         0xa8 (size before relaxing)
 .eh_frame      0x0000000080002b30      0x1b0 .build/msutil.o
                                        0x1c0 (size before relaxing)
 .eh_frame      0x0000000080002ce0       0x30 .build/ms1.o
                                         0x40 (size before relaxing)
 .eh_frame      0x0000000080002d10       0x48 .build/barelib.o
                                         0x60 (size before relaxing)
 .eh_frame      0x0000000080002d58       0x84 .build/printf.o
                                         0x98 (size before relaxing)

.rela.dyn       0x0000000080002de0        0x0
 .rela.sdata    0x0000000080002de0        0x0 .build/initialize.o
 .rela.text.entry
                0x0000000080002de0        0x0 .build/initialize.o

.data           0x0000000080002de0       0xd0
                [!provide]                        PROVIDE (_mmap_write_start = ABSOLUTE (.))
 *(.sdata .sdata.*)
 .sdata         0x0000000080002de0       0x14 .build/traps.o
                0x0000000080002de0                syscall_table
                0x0000000080002de8                sys_syscall_hook
 *fill*         0x0000000080002df4        0x4 
 .sdata         0x0000000080002df8       0x38 .build/mmap.o
                0x0000000080002df8                text_start
                0x0000000080002e00                text_end
                0x0000000080002e08                data_start
                0x0000000080002e10                data_end
                0x0000000080002e18                bss_start
                0x0000000080002e20                mem_start
                0x0000000080002e28                mem_end
 .sdata         0x0000000080002e30       0x10 .build/uart.o
                0x0000000080002e30                sys_putc_hook
                0x0000000080002e38                sys_getc_hook
 .sdata         0x0000000080002e40        0x8 .build/timer.o
                0x0000000080002e40                clint_timer_addr
 .sdata         0x0000000080002e48        0xc .build/msutil.o
                0x0000000080002e48                __ms_stdout_expects
                0x0000000080002e4c                __ms_stdin_expects
                0x0000000080002e50                __ms_syscall_expects
 *(.data .data.*)
 .data          0x0000000080002e54        0x0 .build/initialize.o
 .data          0x0000000080002e54        0x0 .build/traps.o
 .data          0x0000000080002e54        0x0 .build/resched.o
 .data          0x0000000080002e54        0x0 .build/mmap.o
 .data          0x0000000080002e54        0x0 .build/uart.o
 .data          0x0000000080002e54        0x0 .build/plic.o
 .data          0x0000000080002e54        0x0 .build/timer.o
 .data          0x0000000080002e54        0x0 .build/msutil.o
 *fill*         0x0000000080002e54        0x4 
 .data          0x0000000080002e58       0x58 .build/ms1.o
                0x0000000080002e58                __ms1_general_tests
                0x0000000080002e68                __ms1_printf_tests
                0x0000000080002e88                __ms1_init_tests
 .data          0x0000000080002eb0        0x0 .build/barelib.o
 .data          0x0000000080002eb0        0x0 .build/printf.o
 .data          0x0000000080002eb0        0x0 .build/interrupts_asm.o
 .data          0x0000000080002eb0        0x0 .build/msutil_asm.o
 .data          0x0000000080002eb0        0x0 .build/bootstrap_asm.o
                0x0000000080002eb0                PROVIDE (_mmap_data_end = ABSOLUTE (.))

.bss            0x0000000080002eb0      0x898
                0x0000000080002eb0                PROVIDE (_mmap_bss_start = ABSOLUTE (.))
 *(.sbss .sbss.*)
 .sbss          0x0000000080002eb0        0x4 .build/initialize.o
                0x0000000080002eb0                boot_complete
 *fill*         0x0000000080002eb4        0x4 
 .sbss          0x0000000080002eb8       0x18 .build/msutil.o
                0x0000000080002eb8                __ms_stdout_search
                0x0000000080002ec0                oldhook_out
                0x0000000080002ec8                oldhook_in
 *(.bss .bss.*)
 .bss           0x0000000080002ed0        0x0 .build/initialize.o
 .bss           0x0000000080002ed0        0x4 .build/traps.o
 .bss           0x0000000080002ed4        0x0 .build/resched.o
 .bss           0x0000000080002ed4        0x0 .build/mmap.o
 *fill*         0x0000000080002ed4        0x4 
 .bss           0x0000000080002ed8       0x10 .build/uart.o
 .bss           0x0000000080002ee8        0x0 .build/plic.o
 .bss           0x0000000080002ee8        0x0 .build/timer.o
 .bss           0x0000000080002ee8      0x808 .build/msutil.o
 .bss           0x00000000800036f0       0x58 .build/ms1.o
                0x00000000800036f0                __ms1_general
                0x0000000080003700                __ms1_printf
                0x0000000080003720                __ms1_init
 .bss           0x0000000080003748        0x0 .build/barelib.o
 .bss           0x0000000080003748        0x0 .build/printf.o
 .bss           0x0000000080003748        0x0 .build/interrupts_asm.o
 .bss           0x0000000080003748        0x0 .build/msutil_asm.o
 .bss           0x0000000080003748        0x0 .build/bootstrap_asm.o
                [!provide]                        PROVIDE (_mmap_bss_end = ABSOLUTE (.))
                0x000000008000b748                . = (. + 0x8000)
                0x000000008000b748                PROVIDE (_mmap_kstack_top = ABSOLUTE (.))
                0x000000008000c748                . = (. + 0x1000)
                0x0000000080002800                PROVIDE (_mmap_global_ptr = (_mmap_data_start + 0x800))
                0x000000008000c748                PROVIDE (_mmap_mem_start = ABSOLUTE (.))
                0x0000000087ffffff                PROVIDE (_mmap_mem_end = ((ORIGIN (_sysmem) + LENGTH (_sysmem)) - 0x1))
LOAD .build/initialize.o
LOAD .build/traps.o
LOAD .build/resched.o
LOAD .build/mmap.o
LOAD .build/uart.o
LOAD .build/plic.o
LOAD .build/timer.o
LOAD .build/msutil.o
LOAD .build/ms1.o
LOAD .build/barelib.o
LOAD .build/printf.o
LOAD .build/interrupts_asm.o
LOAD .build/msutil_asm.o
LOAD .build/bootstrap_asm.o
OUTPUT(.build/kernel.elf elf64-littleriscv)

.debug_info     0x0000000000000000     0x14a4
 .debug_info    0x0000000000000000      0x135 .build/initialize.o
 .debug_info    0x0000000000000135      0x158 .build/traps.o
 .debug_info    0x000000000000028d       0x8a .build/resched.o
 .debug_info    0x0000000000000317      0x134 .build/mmap.o
 .debug_info    0x000000000000044b      0x27b .build/uart.o
 .debug_info    0x00000000000006c6       0xe5 .build/plic.o
 .debug_info    0x00000000000007ab      0x150 .build/timer.o
 .debug_info    0x00000000000008fb      0x4e1 .build/msutil.o
 .debug_info    0x0000000000000ddc      0x38a .build/ms1.o
 .debug_info    0x0000000000001166       0xcd .build/barelib.o
 .debug_info    0x0000000000001233      0x1f7 .build/printf.o
 .debug_info    0x000000000000142a       0x28 .build/interrupts_asm.o
 .debug_info    0x0000000000001452       0x29 .build/msutil_asm.o
 .debug_info    0x000000000000147b       0x29 .build/bootstrap_asm.o

.debug_abbrev   0x0000000000000000      0xad2
 .debug_abbrev  0x0000000000000000       0xf1 .build/initialize.o
 .debug_abbrev  0x00000000000000f1      0x103 .build/traps.o
 .debug_abbrev  0x00000000000001f4       0x54 .build/resched.o
 .debug_abbrev  0x0000000000000248       0x68 .build/mmap.o
 .debug_abbrev  0x00000000000002b0      0x179 .build/uart.o
 .debug_abbrev  0x0000000000000429       0xba .build/plic.o
 .debug_abbrev  0x00000000000004e3      0x10f .build/timer.o
 .debug_abbrev  0x00000000000005f2      0x1c5 .build/msutil.o
 .debug_abbrev  0x00000000000007b7      0x147 .build/ms1.o
 .debug_abbrev  0x00000000000008fe       0x7e .build/barelib.o
 .debug_abbrev  0x000000000000097c      0x11a .build/printf.o
 .debug_abbrev  0x0000000000000a96       0x14 .build/interrupts_asm.o
 .debug_abbrev  0x0000000000000aaa       0x14 .build/msutil_asm.o
 .debug_abbrev  0x0000000000000abe       0x14 .build/bootstrap_asm.o

.debug_aranges  0x0000000000000000      0x290
 .debug_aranges
                0x0000000000000000       0x30 .build/initialize.o
 .debug_aranges
                0x0000000000000030       0x30 .build/traps.o
 .debug_aranges
                0x0000000000000060       0x30 .build/resched.o
 .debug_aranges
                0x0000000000000090       0x20 .build/mmap.o
 .debug_aranges
                0x00000000000000b0       0x30 .build/uart.o
 .debug_aranges
                0x00000000000000e0       0x30 .build/plic.o
 .debug_aranges
                0x0000000000000110       0x30 .build/timer.o
 .debug_aranges
                0x0000000000000140       0x30 .build/msutil.o
 .debug_aranges
                0x0000000000000170       0x30 .build/ms1.o
 .debug_aranges
                0x00000000000001a0       0x30 .build/barelib.o
 .debug_aranges
                0x00000000000001d0       0x30 .build/printf.o
 .debug_aranges
                0x0000000000000200       0x30 .build/interrupts_asm.o
 .debug_aranges
                0x0000000000000230       0x30 .build/msutil_asm.o
 .debug_aranges
                0x0000000000000260       0x30 .build/bootstrap_asm.o

.debug_line     0x0000000000000000     0x1991
 .debug_line    0x0000000000000000       0xc7 .build/initialize.o
 .debug_line    0x00000000000000c7       0xdd .build/traps.o
 .debug_line    0x00000000000001a4       0x67 .build/resched.o
 .debug_line    0x000000000000020b       0x43 .build/mmap.o
 .debug_line    0x000000000000024e      0x2ae .build/uart.o
 .debug_line    0x00000000000004fc       0xb6 .build/plic.o
 .debug_line    0x00000000000005b2       0xe6 .build/timer.o
 .debug_line    0x0000000000000698      0x675 .build/msutil.o
 .debug_line    0x0000000000000d0d      0x580 .build/ms1.o
 .debug_line    0x000000000000128d      0x10a .build/barelib.o
 .debug_line    0x0000000000001397      0x276 .build/printf.o
 .debug_line    0x000000000000160d       0x88 .build/interrupts_asm.o
 .debug_line    0x0000000000001695      0x1b6 .build/msutil_asm.o
 .debug_line    0x000000000000184b      0x146 .build/bootstrap_asm.o

.debug_str      0x0000000000000000      0x5d7
 .debug_str     0x0000000000000000      0x5d7 .build/initialize.o
                                        0x13c (size before relaxing)
 .debug_str     0x00000000000005d7      0x152 .build/traps.o
 .debug_str     0x00000000000005d7       0xd1 .build/resched.o
 .debug_str     0x00000000000005d7      0x17c .build/mmap.o
 .debug_str     0x00000000000005d7      0x1b9 .build/uart.o
 .debug_str     0x00000000000005d7      0x11e .build/plic.o
 .debug_str     0x00000000000005d7      0x15a .build/timer.o
 .debug_str     0x00000000000005d7      0x212 .build/msutil.o
 .debug_str     0x00000000000005d7      0x23a .build/ms1.o
 .debug_str     0x00000000000005d7       0x7e .build/barelib.o
 .debug_str     0x00000000000005d7      0x134 .build/printf.o
 .debug_str     0x00000000000005d7       0x39 .build/interrupts_asm.o
 .debug_str     0x00000000000005d7       0x36 .build/msutil_asm.o
 .debug_str     0x00000000000005d7       0x2a .build/bootstrap_asm.o

.debug_line_str
                0x0000000000000000      0x18d
 .debug_line_str
                0x0000000000000000      0x18d .build/initialize.o
                                         0x96 (size before relaxing)
 .debug_line_str
                0x000000000000018d       0x71 .build/traps.o
 .debug_line_str
                0x000000000000018d       0x77 .build/resched.o
 .debug_line_str
                0x000000000000018d       0x6e .build/mmap.o
 .debug_line_str
                0x000000000000018d       0x7b .build/uart.o
 .debug_line_str
                0x000000000000018d       0x7b .build/plic.o
 .debug_line_str
                0x000000000000018d       0x7e .build/timer.o
 .debug_line_str
                0x000000000000018d       0x76 .build/msutil.o
 .debug_line_str
                0x000000000000018d       0x76 .build/ms1.o
 .debug_line_str
                0x000000000000018d       0x58 .build/barelib.o
 .debug_line_str
                0x000000000000018d       0x77 .build/printf.o
 .debug_line_str
                0x000000000000018d       0x2d .build/interrupts_asm.o
 .debug_line_str
                0x000000000000018d       0x2a .build/msutil_asm.o
 .debug_line_str
                0x000000000000018d       0x1e .build/bootstrap_asm.o

.comment        0x0000000000000000        0xf
 .comment       0x0000000000000000        0xf .build/initialize.o
                                         0x10 (size before relaxing)
 .comment       0x000000000000000f       0x10 .build/traps.o
 .comment       0x000000000000000f       0x10 .build/resched.o
 .comment       0x000000000000000f       0x10 .build/mmap.o
 .comment       0x000000000000000f       0x10 .build/uart.o
 .comment       0x000000000000000f       0x10 .build/plic.o
 .comment       0x000000000000000f       0x10 .build/timer.o
 .comment       0x000000000000000f       0x10 .build/msutil.o
 .comment       0x000000000000000f       0x10 .build/ms1.o
 .comment       0x000000000000000f       0x10 .build/barelib.o
 .comment       0x000000000000000f       0x10 .build/printf.o

.note.GNU-stack
                0x0000000000000000        0x0
 .note.GNU-stack
                0x0000000000000000        0x0 .build/initialize.o
 .note.GNU-stack
                0x0000000000000000        0x0 .build/traps.o
 .note.GNU-stack
                0x0000000000000000        0x0 .build/resched.o
 .note.GNU-stack
                0x0000000000000000        0x0 .build/mmap.o
 .note.GNU-stack
                0x0000000000000000        0x0 .build/uart.o
 .note.GNU-stack
                0x0000000000000000        0x0 .build/plic.o
 .note.GNU-stack
                0x0000000000000000        0x0 .build/timer.o
 .note.GNU-stack
                0x0000000000000000        0x0 .build/msutil.o
 .note.GNU-stack
                0x0000000000000000        0x0 .build/ms1.o
 .note.GNU-stack
                0x0000000000000000        0x0 .build/barelib.o
 .note.GNU-stack
                0x0000000000000000        0x0 .build/printf.o

.riscv.attributes
                0x0000000000000000       0x41
 .riscv.attributes
                0x0000000000000000       0x34 .build/initialize.o
 .riscv.attributes
                0x0000000000000034       0x38 .build/traps.o
 .riscv.attributes
                0x000000000000006c       0x34 .build/resched.o
 .riscv.attributes
                0x00000000000000a0       0x34 .build/mmap.o
 .riscv.attributes
                0x00000000000000d4       0x34 .build/uart.o
 .riscv.attributes
                0x0000000000000108       0x38 .build/plic.o
 .riscv.attributes
                0x0000000000000140       0x38 .build/timer.o
 .riscv.attributes
                0x0000000000000178       0x34 .build/msutil.o
 .riscv.attributes
                0x00000000000001ac       0x34 .build/ms1.o
 .riscv.attributes
                0x00000000000001e0       0x34 .build/barelib.o
 .riscv.attributes
                0x0000000000000214       0x34 .build/printf.o
 .riscv.attributes
                0x0000000000000248       0x3f .build/interrupts_asm.o
 .riscv.attributes
                0x0000000000000287       0x32 .build/msutil_asm.o
 .riscv.attributes
                0x00000000000002b9       0x3f .build/bootstrap_asm.o
